target datalayout = "e-m:e-p270:32:32-p271:32:32-p272:64:64-i64:64-i128:128-f80:128-n8:16:32:64-S128"
target triple = "x86_64-unknown-linux-gnu"

%"class.OpenColorIO_v2_4dev::Processor" = type { ptr }

@_ZN19OpenColorIO_v2_4dev9Processor4ImplD1Ev = unnamed_addr alias void (ptr), ptr @_ZN19OpenColorIO_v2_4dev9Processor4ImplD2Ev

; Function Attrs: mustprogress nounwind uwtable
define void @_ZN19OpenColorIO_v2_4dev9ProcessorD2Ev(ptr noundef nonnull align 8 dereferenceable(8) %this) unnamed_addr #4 align 2 {
entry:
  %this.addr = alloca ptr, align 8
  store ptr %this, ptr %this.addr, align 8
  %this1 = load ptr, ptr %this.addr, align 8
  %m_impl = getelementptr inbounds %"class.OpenColorIO_v2_4dev::Processor", ptr %this1, i32 0, i32 0
  %0 = load ptr, ptr %m_impl, align 8
  %isnull = icmp eq ptr %0, null
  br i1 %isnull, label %delete.end, label %delete.notnull

delete.notnull:                                   ; preds = %entry
  call void @_ZN19OpenColorIO_v2_4dev9Processor4ImplD1Ev(ptr noundef nonnull align 8 dereferenceable(552) %0) #13
  call void @_ZdlPv(ptr noundef %0) #15
  br label %delete.end

delete.end:                                       ; preds = %delete.notnull, %entry
  %m_impl2 = getelementptr inbounds %"class.OpenColorIO_v2_4dev::Processor", ptr %this1, i32 0, i32 0
  store ptr null, ptr %m_impl2, align 8
  ret void
}