; Function Attrs: mustprogress nounwind uwtable
define void @_ZN19OpenColorIO_v2_4dev9ProcessorD2Ev(ptr nocapture noundef nonnull align 8 dereferenceable(8) %this) unnamed_addr #4 align 2 {
entry:
  %0 = load ptr, ptr %this, align 8
  %isnull = icmp eq ptr %0, null
  br i1 %isnull, label %delete.end, label %delete.notnull

delete.notnull:                                   ; preds = %entry
  tail call void @_ZN19OpenColorIO_v2_4dev9Processor4ImplD1Ev(ptr noundef nonnull align 8 dereferenceable(552) %0) #22
  tail call void @_ZdlPv(ptr noundef nonnull %0) #23
  br label %delete.end

delete.end:                                       ; preds = %delete.notnull, %entry
  store ptr null, ptr %this, align 8
  ret void
}